; Function Attrs: nounwind uwtable
define ptr @l_Lean_Json_getObjValAs_x3f___at___private_Lean_Setup_0__Lean_fromJsonImport____x40_Lean_Setup___hyg_190____spec__2___boxed(ptr noundef %0, ptr noundef %1) local_unnamed_addr #0 {
  %3 = tail call ptr @l_Lean_Json_getObjValD(ptr noundef %0, ptr noundef %1) #6
  %4 = tail call ptr @l_Lean_Json_getBool_x3f(ptr noundef %3) #6
  %5 = ptrtoint ptr %3 to i64
  %6 = and i64 %5, 1
  %.not.i4 = icmp eq i64 %6, 0
  br i1 %.not.i4, label %7, label %l_Lean_Json_getObjValAs_x3f___at___private_Lean_Setup_0__Lean_fromJsonImport____x40_Lean_Setup___hyg_190____spec__2.exit

7:                                                ; preds = %2
  %8 = load i32, ptr %3, align 4, !tbaa !8
  %9 = icmp sgt i32 %8, 1
  br i1 %9, label %10, label %12, !prof !11

10:                                               ; preds = %7
  %11 = add nsw i32 %8, -1
  store i32 %11, ptr %3, align 4, !tbaa !8
  br label %l_Lean_Json_getObjValAs_x3f___at___private_Lean_Setup_0__Lean_fromJsonImport____x40_Lean_Setup___hyg_190____spec__2.exit

12:                                               ; preds = %7
  %.not.i.i = icmp eq i32 %8, 0
  br i1 %.not.i.i, label %l_Lean_Json_getObjValAs_x3f___at___private_Lean_Setup_0__Lean_fromJsonImport____x40_Lean_Setup___hyg_190____spec__2.exit, label %13

13:                                               ; preds = %12
  tail call void @lean_dec_ref_cold(ptr noundef nonnull %3) #6
  br label %l_Lean_Json_getObjValAs_x3f___at___private_Lean_Setup_0__Lean_fromJsonImport____x40_Lean_Setup___hyg_190____spec__2.exit

l_Lean_Json_getObjValAs_x3f___at___private_Lean_Setup_0__Lean_fromJsonImport____x40_Lean_Setup___hyg_190____spec__2.exit: ; preds = %2, %10, %12, %13
  %14 = ptrtoint ptr %1 to i64
  %15 = and i64 %14, 1
  %.not = icmp eq i64 %15, 0
  br i1 %.not, label %16, label %lean_dec.exit

16:                                               ; preds = %l_Lean_Json_getObjValAs_x3f___at___private_Lean_Setup_0__Lean_fromJsonImport____x40_Lean_Setup___hyg_190____spec__2.exit
  %17 = load i32, ptr %1, align 4, !tbaa !8
  %18 = icmp sgt i32 %17, 1
  br i1 %18, label %19, label %21, !prof !11

19:                                               ; preds = %16
  %20 = add nsw i32 %17, -1
  store i32 %20, ptr %1, align 4, !tbaa !8
  br label %lean_dec.exit

21:                                               ; preds = %16
  %.not.i = icmp eq i32 %17, 0
  br i1 %.not.i, label %lean_dec.exit, label %22

22:                                               ; preds = %21
  tail call void @lean_dec_ref_cold(ptr noundef nonnull %1) #6
  br label %lean_dec.exit

lean_dec.exit:                                    ; preds = %22, %21, %19, %l_Lean_Json_getObjValAs_x3f___at___private_Lean_Setup_0__Lean_fromJsonImport____x40_Lean_Setup___hyg_190____spec__2.exit
  ret ptr %4
}